(dp0
S'METTS MARK'
p1
(dp2
S'to_messages'
p3
I807
sS'assur'
p4
F0.0
sS'deferral_payments'
p5
S'NaN'
p6
sS'bonus'
p7
I600000
sS'total_stock_value'
p8
I585062
sS'expenses'
p9
I94299
sS'from_poi_to_this_person'
p10
I38
sS'from_this_person_to_poi'
p11
I1
sS'poi'
p12
I00
sS'deferred_income'
p13
g6
sS'restricted_stock'
p14
I585062
sS'long_term_incentive'
p15
g6
sS'concern'
p16
F0.3793103448275862
sS'salary'
p17
I365788
sS'blame'
p18
F0.0
sS'total_payments'
p19
I1061827
sS'loan_advances'
p20
g6
sS'email_address'
p21
S'mark.metts@enron.com'
p22
sS'restricted_stock_deferred'
p23
g6
sS'shared_receipt_with_poi'
p24
I702
sS'exercised_stock_options'
p25
g6
sS'from_messages'
p26
I29
sS'other'
p27
I1740
sS'problem'
p28
F0.9310344827586207
sS'director_fees'
p29
g6
ssS'BAXTER JOHN C'
p30
(dp31
g3
g6
sg4
S'NaN'
p32
sg5
I1295738
sg7
I1200000
sg8
I10623258
sg9
I11200
sg10
g6
sg11
g6
sg12
I00
sg13
I-1386055
sg14
I3942714
sg15
I1586055
sg16
g32
sg17
I267102
sg18
g32
sg19
I5634343
sg20
g6
sg21
g6
sg23
g6
sg24
g6
sg25
I6680544
sg26
g6
sg27
I2660303
sg28
g32
sg29
g6
ssS'ELLIOTT STEVEN'
p33
(dp34
g3
g6
sg4
g32
sg5
g6
sg7
I350000
sg8
I6678735
sg9
I78552
sg10
g6
sg11
g6
sg12
I00
sg13
I-400729
sg14
I1788391
sg15
g6
sg16
g32
sg17
I170941
sg18
g32
sg19
I211725
sg20
g6
sg21
S'steven.elliott@enron.com'
p35
sg23
g6
sg24
g6
sg25
I4890344
sg26
g6
sg27
I12961
sg28
g32
sg29
g6
ssS'CORDES WILLIAM R'
p36
(dp37
g3
I764
sg4
g32
sg5
g6
sg7
g6
sg8
I1038185
sg9
g6
sg10
I10
sg11
I0
sg12
I00
sg13
g6
sg14
I386335
sg15
g6
sg16
g32
sg17
g6
sg18
g32
sg19
g6
sg20
g6
sg21
S'bill.cordes@enron.com'
p38
sg23
g6
sg24
I58
sg25
I651850
sg26
I12
sg27
g6
sg28
g32
sg29
g6
ssS'HANNON KEVIN P'
p39
(dp40
g3
I1045
sg4
F0.1875
sg5
g6
sg7
I1500000
sg8
I6391065
sg9
I34039
sg10
I32
sg11
I21
sg12
I01
sg13
I-3117011
sg14
I853064
sg15
I1617011
sg16
F0.0
sg17
I243293
sg18
F0.0
sg19
I288682
sg20
g6
sg21
S'kevin.hannon@enron.com'
p41
sg23
g6
sg24
I1035
sg25
I5538001
sg26
I32
sg27
I11350
sg28
F0.0
sg29
g6
ssS'MORDAUNT KRISTINA M'
p42
(dp43
g3
g6
sg4
g32
sg5
g6
sg7
I325000
sg8
I208510
sg9
I35018
sg10
g6
sg11
g6
sg12
I00
sg13
g6
sg14
I208510
sg15
g6
sg16
g32
sg17
I267093
sg18
g32
sg19
I628522
sg20
g6
sg21
S'kristina.mordaunt@enron.com'
p44
sg23
g6
sg24
g6
sg25
g6
sg26
g6
sg27
I1411
sg28
g32
sg29
g6
ssS'MEYER ROCKFORD G'
p45
(dp46
g3
I232
sg4
F0.0
sg5
I1848227
sg7
g6
sg8
I955873
sg9
g6
sg10
I0
sg11
I0
sg12
I00
sg13
g6
sg14
I462384
sg15
g6
sg16
F0.14285714285714285
sg17
g6
sg18
F0.0
sg19
I1848227
sg20
g6
sg21
S'rockford.meyer@enron.com'
p47
sg23
g6
sg24
I22
sg25
I493489
sg26
I28
sg27
g6
sg28
F0.21428571428571427
sg29
g6
ssS'MCMAHON JEFFREY'
p48
(dp49
g3
I2355
sg4
F0.0
sg5
g6
sg7
I2600000
sg8
I1662855
sg9
I137108
sg10
I58
sg11
I26
sg12
I00
sg13
g6
sg14
I558801
sg15
I694862
sg16
F0.1875
sg17
I370448
sg18
F0.0
sg19
I4099771
sg20
g6
sg21
S'jeffrey.mcmahon@enron.com'
p50
sg23
g6
sg24
I2228
sg25
I1104054
sg26
I48
sg27
I297353
sg28
F0.0
sg29
g6
ssS'HORTON STANLEY C'
p51
(dp52
g3
I2350
sg4
F0.0130475302889096
sg5
I3131860
sg7
g6
sg8
I7256648
sg9
g6
sg10
I44
sg11
I15
sg12
I00
sg13
g6
sg14
I2046079
sg15
g6
sg16
F0.07642124883504194
sg17
g6
sg18
F0.013979496738117428
sg19
I3131860
sg20
g6
sg21
S'stanley.horton@enron.com'
p53
sg23
g6
sg24
I1074
sg25
I5210569
sg26
I1073
sg27
g6
sg28
F0.05498602050326188
sg29
g6
ssS'PIPER GREGORY F'
p54
(dp55
g3
I1238
sg4
F0.04054054054054054
sg5
I1130036
sg7
I400000
sg8
I880290
sg9
I43057
sg10
I61
sg11
I48
sg12
I00
sg13
I-33333
sg14
I409554
sg15
g6
sg16
F0.14414414414414414
sg17
I197091
sg18
F0.0
sg19
I1737629
sg20
g6
sg21
S'greg.piper@enron.com'
p56
sg23
I-409554
sg24
I742
sg25
I880290
sg26
I222
sg27
I778
sg28
F0.06756756756756757
sg29
g6
ssS'HUMPHREY GENE E'
p57
(dp58
g3
I128
sg4
F0.0
sg5
I2964506
sg7
g6
sg8
I2282768
sg9
I4994
sg10
I10
sg11
I17
sg12
I00
sg13
g6
sg14
g6
sg15
g6
sg16
F0.058823529411764705
sg17
I130724
sg18
F0.0
sg19
I3100224
sg20
g6
sg21
S'gene.humphrey@enron.com'
p59
sg23
g6
sg24
I119
sg25
I2282768
sg26
I17
sg27
g6
sg28
F0.0
sg29
g6
ssS'UMANOFF ADAM S'
p60
(dp61
g3
I111
sg4
F0.0
sg5
g6
sg7
I788750
sg8
g6
sg9
I53122
sg10
I12
sg11
I0
sg12
I00
sg13
g6
sg14
g6
sg15
g6
sg16
F1.0555555555555556
sg17
I288589
sg18
F0.0
sg19
I1130461
sg20
g6
sg21
S'adam.umanoff@enron.com'
p62
sg23
g6
sg24
I41
sg25
g6
sg26
I18
sg27
g6
sg28
F0.16666666666666666
sg29
g6
ssS'BLACHMAN JEREMY M'
p63
(dp64
g3
I2475
sg4
F0.0
sg5
g6
sg7
I850000
sg8
I954354
sg9
I84208
sg10
I25
sg11
I2
sg12
I00
sg13
g6
sg14
I189041
sg15
I831809
sg16
F0.35714285714285715
sg17
I248546
sg18
F0.0
sg19
I2014835
sg20
g6
sg21
S'jeremy.blachman@enron.com'
p65
sg23
g6
sg24
I2326
sg25
I765313
sg26
I14
sg27
I272
sg28
F0.07142857142857142
sg29
g6
ssS'SUNDE MARTIN'
p66
(dp67
g3
I2647
sg4
g32
sg5
g6
sg7
I700000
sg8
I698920
sg9
g6
sg10
I37
sg11
I13
sg12
I00
sg13
g6
sg14
I698920
sg15
I476451
sg16
g32
sg17
I257486
sg18
g32
sg19
I1545059
sg20
g6
sg21
S'marty.sunde@enron.com'
p68
sg23
g6
sg24
I2565
sg25
g6
sg26
I38
sg27
I111122
sg28
g32
sg29
g6
ssS'GIBBS DANA R'
p69
(dp70
g3
I169
sg4
F0.0
sg5
I504610
sg7
g6
sg8
I2218275
sg9
g6
sg10
I0
sg11
I0
sg12
I00
sg13
g6
sg14
g6
sg15
I461912
sg16
F0.16666666666666666
sg17
g6
sg18
F0.0
sg19
I966522
sg20
g6
sg21
S'dana.gibbs@enron.com'
p71
sg23
g6
sg24
I23
sg25
I2218275
sg26
I12
sg27
g6
sg28
F0.3333333333333333
sg29
g6
ssS'LOWRY CHARLES P'
p72
(dp73
g3
g6
sg4
g32
sg5
g6
sg7
g6
sg8
I372205
sg9
g6
sg10
g6
sg11
g6
sg12
I00
sg13
g6
sg14
I153686
sg15
g6
sg16
g32
sg17
g6
sg18
g32
sg19
g6
sg20
g6
sg21
g6
sg23
I-153686
sg24
g6
sg25
I372205
sg26
g6
sg27
g6
sg28
g32
sg29
g6
ssS'COLWELL WESLEY'
p74
(dp75
g3
I1758
sg4
F0.0
sg5
I27610
sg7
I1200000
sg8
I698242
sg9
I16514
sg10
I240
sg11
I11
sg12
I01
sg13
I-144062
sg14
I698242
sg15
g6
sg16
F0.15
sg17
I288542
sg18
F0.0
sg19
I1490344
sg20
g6
sg21
S'wes.colwell@enron.com'
p76
sg23
g6
sg24
I1132
sg25
g6
sg26
I40
sg27
I101740
sg28
F0.025
sg29
g6
ssS'MULLER MARK S'
p77
(dp78
g3
I136
sg4
g32
sg5
I842924
sg7
I1100000
sg8
I1416848
sg9
g6
sg10
I12
sg11
I0
sg12
I00
sg13
I-719000
sg14
I360528
sg15
I1725545
sg16
g32
sg17
I251654
sg18
g32
sg19
I3202070
sg20
g6
sg21
S's..muller@enron.com'
p79
sg23
g6
sg24
I114
sg25
I1056320
sg26
I16
sg27
I947
sg28
g32
sg29
g6
ssS'JACKSON CHARLENE R'
p80
(dp81
g3
I258
sg4
F0.05357142857142857
sg5
g6
sg7
I250000
sg8
I725735
sg9
I10181
sg10
I25
sg11
I19
sg12
I00
sg13
g6
sg14
I540672
sg15
g6
sg16
F0.19642857142857142
sg17
I288558
sg18
F0.0
sg19
I551174
sg20
g6
sg21
S'charlene.jackson@enron.com'
p82
sg23
g6
sg24
I117
sg25
I185063
sg26
I56
sg27
I2435
sg28
F0.26785714285714285
sg29
g6
ssS'WESTFAHL RICHARD K'
p83
(dp84
g3
g6
sg4
g32
sg5
g6
sg7
g6
sg8
I384930
sg9
I51870
sg10
g6
sg11
g6
sg12
I00
sg13
I-10800
sg14
I384930
sg15
I256191
sg16
g32
sg17
I63744
sg18
g32
sg19
I762135
sg20
g6
sg21
S'dick.westfahl@enron.com'
p85
sg23
g6
sg24
g6
sg25
g6
sg26
g6
sg27
I401130
sg28
g32
sg29
g6
ssS'WALTERS GARETH W'
p86
(dp87
g3
g6
sg4
g32
sg5
I53625
sg7
g6
sg8
I1030329
sg9
I33785
sg10
g6
sg11
g6
sg12
I00
sg13
g6
sg14
g6
sg15
g6
sg16
g32
sg17
g6
sg18
g32
sg19
I87410
sg20
g6
sg21
g6
sg23
g6
sg24
g6
sg25
I1030329
sg26
g6
sg27
g6
sg28
g32
sg29
g6
ssS'WALLS JR ROBERT H'
p88
(dp89
g3
I671
sg4
F0.00684931506849315
sg5
g6
sg7
I850000
sg8
I5898997
sg9
I50936
sg10
I17
sg11
I0
sg12
I00
sg13
g6
sg14
I1552453
sg15
I540751
sg16
F0.1506849315068493
sg17
I357091
sg18
F0.0
sg19
I1798780
sg20
g6
sg21
S'rob.walls@enron.com'
p90
sg23
g6
sg24
I215
sg25
I4346544
sg26
I146
sg27
I2
sg28
F0.19863013698630136
sg29
g6
ssS'KITCHEN LOUISE'
p91
(dp92
g3
I8305
sg4
F0.020833333333333332
sg5
g6
sg7
I3100000
sg8
I547143
sg9
I5774
sg10
I251
sg11
I194
sg12
I00
sg13
g6
sg14
I466101
sg15
g6
sg16
F0.1232638888888889
sg17
I271442
sg18
F0.005787037037037037
sg19
I3471141
sg20
g6
sg21
S'louise.kitchen@enron.com'
p93
sg23
g6
sg24
I3669
sg25
I81042
sg26
I1728
sg27
I93925
sg28
F0.08506944444444445
sg29
g6
ssS'CHAN RONNIE'
p94
(dp95
g3
g6
sg4
g32
sg5
g6
sg7
g6
sg8
g6
sg9
g6
sg10
g6
sg11
g6
sg12
I00
sg13
I-98784
sg14
I32460
sg15
g6
sg16
g32
sg17
g6
sg18
g32
sg19
g6
sg20
g6
sg21
g6
sg23
I-32460
sg24
g6
sg25
g6
sg26
g6
sg27
g6
sg28
g32
sg29
I98784
ssS'BELFER ROBERT'
p96
(dp97
g3
g6
sg4
g32
sg5
I-102500
sg7
g6
sg8
I-44093
sg9
g6
sg10
g6
sg11
g6
sg12
I00
sg13
g6
sg14
g6
sg15
g6
sg16
g32
sg17
g6
sg18
g32
sg19
I102500
sg20
g6
sg21
g6
sg23
I44093
sg24
g6
sg25
I3285
sg26
g6
sg27
g6
sg28
g32
sg29
I3285
ssS'SHANKMAN JEFFREY A'
p98
(dp99
g3
I3221
sg4
F0.008578888474449832
sg5
g6
sg7
I2000000
sg8
I2072035
sg9
I178979
sg10
I94
sg11
I83
sg12
I00
sg13
g6
sg14
I630137
sg15
I554422
sg16
F0.05333830660201418
sg17
I304110
sg18
F0.006340917568071615
sg19
I3038702
sg20
g6
sg21
S'jeffrey.shankman@enron.com'
p100
sg23
g6
sg24
I1730
sg25
I1441898
sg26
I2681
sg27
I1191
sg28
F0.08951883625512869
sg29
g6
ssS'WODRASKA JOHN'
p101
(dp102
g3
g6
sg4
g32
sg5
g6
sg7
g6
sg8
g6
sg9
g6
sg10
g6
sg11
g6
sg12
I00
sg13
g6
sg14
g6
sg15
g6
sg16
g32
sg17
g6
sg18
g32
sg19
I189583
sg20
g6
sg21
S'john.wodraska@enron.com'
p103
sg23
g6
sg24
g6
sg25
g6
sg26
g6
sg27
I189583
sg28
g32
sg29
g6
ssS'BERGSIEKER RICHARD P'
p104
(dp105
g3
I383
sg4
g32
sg5
g6
sg7
I250000
sg8
I659249
sg9
I59175
sg10
I4
sg11
I0
sg12
I00
sg13
I-485813
sg14
I659249
sg15
I180250
sg16
g32
sg17
I187922
sg18
g32
sg19
I618850
sg20
g6
sg21
S'rick.bergsieker@enron.com'
p106
sg23
g6
sg24
I233
sg25
g6
sg26
I59
sg27
I427316
sg28
g32
sg29
g6
ssS'URQUHART JOHN A'
p107
(dp108
g3
g6
sg4
g32
sg5
g6
sg7
g6
sg8
g6
sg9
I228656
sg10
g6
sg11
g6
sg12
I00
sg13
I-36666
sg14
g6
sg15
g6
sg16
g32
sg17
g6
sg18
g32
sg19
I228656
sg20
g6
sg21
g6
sg23
g6
sg24
g6
sg25
g6
sg26
g6
sg27
g6
sg28
g32
sg29
I36666
ssS'BIBI PHILIPPE A'
p109
(dp110
g3
I1607
sg4
F0.0
sg5
g6
sg7
I1000000
sg8
I1843816
sg9
I38559
sg10
I23
sg11
I8
sg12
I00
sg13
g6
sg14
I378082
sg15
I369721
sg16
F0.0
sg17
I213625
sg18
F0.0
sg19
I2047593
sg20
g6
sg21
S'philippe.bibi@enron.com'
p111
sg23
g6
sg24
I1336
sg25
I1465734
sg26
I40
sg27
I425688
sg28
F1.775
sg29
g6
ssS'RIEKER PAULA H'
p112
(dp113
g3
I1328
sg4
F0.0
sg5
I214678
sg7
I700000
sg8
I1918887
sg9
I33271
sg10
I35
sg11
I48
sg12
I01
sg13
I-100000
sg14
I283649
sg15
g6
sg16
F0.04878048780487805
sg17
I249201
sg18
F0.0
sg19
I1099100
sg20
g6
sg21
S'paula.rieker@enron.com'
p114
sg23
g6
sg24
I1258
sg25
I1635238
sg26
I82
sg27
I1950
sg28
F0.012195121951219513
sg29
g6
ssS'WHALEY DAVID A'
p115
(dp116
g3
g6
sg4
g32
sg5
g6
sg7
g6
sg8
I98718
sg9
g6
sg10
g6
sg11
g6
sg12
I00
sg13
g6
sg14
g6
sg15
g6
sg16
g32
sg17
g6
sg18
g32
sg19
g6
sg20
g6
sg21
g6
sg23
g6
sg24
g6
sg25
I98718
sg26
g6
sg27
g6
sg28
g32
sg29
g6
ssS'BECK SALLY W'
p117
(dp118
g3
I7315
sg4
F0.01865070227953028
sg5
g6
sg7
I700000
sg8
I126027
sg9
I37172
sg10
I144
sg11
I386
sg12
I00
sg13
g6
sg14
I126027
sg15
g6
sg16
F0.10200322357817176
sg17
I231330
sg18
F0.0
sg19
I969068
sg20
g6
sg21
S'sally.beck@enron.com'
p119
sg23
g6
sg24
I2639
sg25
g6
sg26
I4343
sg27
I566
sg28
F0.0838130324660373
sg29
g6
ssS'HAUG DAVID L'
p120
(dp121
g3
I573
sg4
F0.0
sg5
g6
sg7
g6
sg8
I2217299
sg9
I475
sg10
I4
sg11
I7
sg12
I00
sg13
g6
sg14
I2217299
sg15
g6
sg16
F0.0
sg17
g6
sg18
F0.0
sg19
I475
sg20
g6
sg21
S'david.haug@enron.com'
p122
sg23
g6
sg24
I471
sg25
g6
sg26
I19
sg27
g6
sg28
F1.5789473684210527
sg29
g6
ssS'ECHOLS JOHN B'
p123
(dp124
g3
g6
sg4
g32
sg5
g6
sg7
I200000
sg8
I1008941
sg9
I21530
sg10
g6
sg11
g6
sg12
I00
sg13
g6
sg14
I407503
sg15
I2234774
sg16
g32
sg17
I182245
sg18
g32
sg19
I2692324
sg20
g6
sg21
S'john.echols@enron.com'
p125
sg23
g6
sg24
g6
sg25
I601438
sg26
g6
sg27
I53775
sg28
g32
sg29
g6
ssS'MENDELSOHN JOHN'
p126
(dp127
g3
g6
sg4
g32
sg5
g6
sg7
g6
sg8
g6
sg9
I148
sg10
g6
sg11
g6
sg12
I00
sg13
I-103750
sg14
g6
sg15
g6
sg16
g32
sg17
g6
sg18
g32
sg19
I148
sg20
g6
sg21
g6
sg23
g6
sg24
g6
sg25
g6
sg26
g6
sg27
g6
sg28
g32
sg29
I103750
ssS'HICKERSON GARY J'
p128
(dp129
g3
I1320
sg4
F0.07407407407407407
sg5
g6
sg7
I1700000
sg8
I441096
sg9
I98849
sg10
I40
sg11
I1
sg12
I00
sg13
g6
sg14
I441096
sg15
I69223
sg16
F0.4444444444444444
sg17
I211788
sg18
F0.0
sg19
I2081796
sg20
g6
sg21
S'gary.hickerson@enron.com'
p130
sg23
g6
sg24
I900
sg25
g6
sg26
I27
sg27
I1936
sg28
F0.18518518518518517
sg29
g6
ssS'CLINE KENNETH W'
p131
(dp132
g3
g6
sg4
g32
sg5
g6
sg7
g6
sg8
I189518
sg9
g6
sg10
g6
sg11
g6
sg12
I00
sg13
g6
sg14
I662086
sg15
g6
sg16
g32
sg17
g6
sg18
g32
sg19
g6
sg20
g6
sg21
g6
sg23
I-472568
sg24
g6
sg25
g6
sg26
g6
sg27
g6
sg28
g32
sg29
g6
ssS'LEWIS RICHARD'
p133
(dp134
g3
I952
sg4
F0.0
sg5
g6
sg7
g6
sg8
I850477
sg9
g6
sg10
I10
sg11
I0
sg12
I00
sg13
g6
sg14
g6
sg15
g6
sg16
F0.0
sg17
g6
sg18
F0.0
sg19
g6
sg20
g6
sg21
S'richard.lewis@enron.com'
p135
sg23
g6
sg24
I739
sg25
I850477
sg26
I26
sg27
g6
sg28
F0.0
sg29
g6
ssS'HAYES ROBERT E'
p136
(dp137
g3
I504
sg4
F0.0
sg5
I7961
sg7
g6
sg8
I151418
sg9
g6
sg10
I16
sg11
I0
sg12
I00
sg13
g6
sg14
I151418
sg15
g6
sg16
F0.0
sg17
g6
sg18
F0.0
sg19
I7961
sg20
g6
sg21
S'robert.hayes@enron.com'
p138
sg23
g6
sg24
I50
sg25
g6
sg26
I12
sg27
g6
sg28
F0.0
sg29
g6
ssS'MCCARTY DANNY J'
p139
(dp140
g3
I1433
sg4
F0.027906976744186046
sg5
g6
sg7
g6
sg8
I758931
sg9
g6
sg10
I25
sg11
I2
sg12
I00
sg13
g6
sg14
I94556
sg15
g6
sg16
F0.05581395348837209
sg17
g6
sg18
F0.0
sg19
g6
sg20
g6
sg21
S'danny.mccarty@enron.com'
p141
sg23
g6
sg24
I508
sg25
I664375
sg26
I215
sg27
g6
sg28
F0.05581395348837209
sg29
g6
ssS'KOPPER MICHAEL J'
p142
(dp143
g3
g6
sg4
g32
sg5
g6
sg7
I800000
sg8
I985032
sg9
I118134
sg10
g6
sg11
g6
sg12
I01
sg13
g6
sg14
I985032
sg15
I602671
sg16
g32
sg17
I224305
sg18
g32
sg19
I2652612
sg20
g6
sg21
S'michael.kopper@enron.com'
p144
sg23
g6
sg24
g6
sg25
g6
sg26
g6
sg27
I907502
sg28
g32
sg29
g6
ssS'LEFF DANIEL P'
p145
(dp146
g3
I2822
sg4
F0.3492063492063492
sg5
g6
sg7
I1000000
sg8
I360528
sg9
g6
sg10
I67
sg11
I14
sg12
I00
sg13
g6
sg14
I360528
sg15
I1387399
sg16
F1.126984126984127
sg17
I273746
sg18
F0.031746031746031744
sg19
I2664228
sg20
g6
sg21
S'dan.leff@enron.com'
p147
sg23
g6
sg24
I2672
sg25
g6
sg26
I63
sg27
I3083
sg28
F0.4126984126984127
sg29
g6
ssS'LAVORATO JOHN J'
p148
(dp149
g3
I7259
sg4
F0.0046421663442940036
sg5
g6
sg7
I8000000
sg8
I5167144
sg9
I49537
sg10
I528
sg11
I411
sg12
I00
sg13
g6
sg14
I1008149
sg15
I2035380
sg16
F0.016634429400386848
sg17
I339288
sg18
F0.0
sg19
I10425757
sg20
g6
sg21
S'john.lavorato@enron.com'
p150
sg23
g6
sg24
I3962
sg25
I4158995
sg26
I2585
sg27
I1552
sg28
F0.06460348162475822
sg29
g6
ssS'BERBERIAN DAVID'
p151
(dp152
g3
g6
sg4
g32
sg5
g6
sg7
g6
sg8
I2493616
sg9
I11892
sg10
g6
sg11
g6
sg12
I00
sg13
g6
sg14
I869220
sg15
g6
sg16
g32
sg17
I216582
sg18
g32
sg19
I228474
sg20
g6
sg21
S'david.berberian@enron.com'
p153
sg23
g6
sg24
g6
sg25
I1624396
sg26
g6
sg27
g6
sg28
g32
sg29
g6
ssS'DETMERING TIMOTHY J'
p154
(dp155
g3
g6
sg4
g32
sg5
I875307
sg7
I425000
sg8
I2027865
sg9
I52255
sg10
g6
sg11
g6
sg12
I00
sg13
I-775241
sg14
I315068
sg15
I415657
sg16
g32
sg17
I210500
sg18
g32
sg19
I1204583
sg20
g6
sg21
S'timothy.detmering@enron.com'
p156
sg23
I-315068
sg24
g6
sg25
I2027865
sg26
g6
sg27
I1105
sg28
g32
sg29
g6
ssS'WAKEHAM JOHN'
p157
(dp158
g3
g6
sg4
g32
sg5
g6
sg7
g6
sg8
g6
sg9
I103773
sg10
g6
sg11
g6
sg12
I00
sg13
g6
sg14
g6
sg15
g6
sg16
g32
sg17
g6
sg18
g32
sg19
I213071
sg20
g6
sg21
g6
sg23
g6
sg24
g6
sg25
g6
sg26
g6
sg27
g6
sg28
g32
sg29
I109298
ssS'POWERS WILLIAM'
p159
(dp160
g3
I653
sg4
g32
sg5
g6
sg7
g6
sg8
g6
sg9
g6
sg10
I0
sg11
I0
sg12
I00
sg13
I-17500
sg14
g6
sg15
g6
sg16
g32
sg17
g6
sg18
g32
sg19
g6
sg20
g6
sg21
S'ken.powers@enron.com'
p161
sg23
g6
sg24
I12
sg25
g6
sg26
I26
sg27
g6
sg28
g32
sg29
I17500
ssS'GOLD JOSEPH'
p162
(dp163
g3
g6
sg4
g32
sg5
g6
sg7
I750000
sg8
I877611
sg9
g6
sg10
g6
sg11
g6
sg12
I00
sg13
g6
sg14
I441096
sg15
I304805
sg16
g32
sg17
I272880
sg18
g32
sg19
I2146973
sg20
g6
sg21
S'joe.gold@enron.com'
p164
sg23
g6
sg24
g6
sg25
I436515
sg26
g6
sg27
I819288
sg28
g32
sg29
g6
ssS'BANNANTINE JAMES M'
p165
(dp166
g3
I566
sg4
F0.0
sg5
g6
sg7
g6
sg8
I5243487
sg9
I56301
sg10
I39
sg11
I0
sg12
I00
sg13
I-5104
sg14
I1757552
sg15
g6
sg16
F0.06896551724137931
sg17
I477
sg18
F0.0
sg19
I916197
sg20
g6
sg21
S'james.bannantine@enron.com'
p167
sg23
I-560222
sg24
I465
sg25
I4046157
sg26
I29
sg27
I864523
sg28
F0.0
sg29
g6
ssS'DUNCAN JOHN H'
p168
(dp169
g3
g6
sg4
g32
sg5
g6
sg7
g6
sg8
I371750
sg9
g6
sg10
g6
sg11
g6
sg12
I00
sg13
I-25000
sg14
g6
sg15
g6
sg16
g32
sg17
g6
sg18
g32
sg19
I77492
sg20
g6
sg21
g6
sg23
g6
sg24
g6
sg25
I371750
sg26
g6
sg27
g6
sg28
g32
sg29
I102492
ssS'SHAPIRO RICHARD S'
p170
(dp171
g3
I15149
sg4
F0.023868312757201648
sg5
g6
sg7
I650000
sg8
I987001
sg9
I137767
sg10
I74
sg11
I65
sg12
I00
sg13
g6
sg14
I379164
sg15
g6
sg16
F0.21152263374485597
sg17
I269076
sg18
F0.07078189300411522
sg19
I1057548
sg20
g6
sg21
S'richard.shapiro@enron.com'
p172
sg23
g6
sg24
I4527
sg25
I607837
sg26
I1215
sg27
I705
sg28
F0.21810699588477367
sg29
g6
ssS'SHERRIFF JOHN R'
p173
(dp174
g3
I3187
sg4
F0.0
sg5
g6
sg7
I1500000
sg8
I3128982
sg9
g6
sg10
I28
sg11
I23
sg12
I00
sg13
g6
sg14
I1293424
sg15
I554422
sg16
F0.20652173913043478
sg17
I428780
sg18
F0.06521739130434782
sg19
I4335388
sg20
g6
sg21
S'john.sherriff@enron.com'
p175
sg23
g6
sg24
I2103
sg25
I1835558
sg26
I92
sg27
I1852186
sg28
F0.11956521739130435
sg29
g6
ssS'SHELBY REX'
p176
(dp177
g3
I225
sg4
F0.02564102564102564
sg5
g6
sg7
I200000
sg8
I2493616
sg9
I22884
sg10
I13
sg11
I14
sg12
I01
sg13
I-4167
sg14
I869220
sg15
g6
sg16
F0.07692307692307693
sg17
I211844
sg18
F0.0
sg19
I2003885
sg20
g6
sg21
S'rex.shelby@enron.com'
p178
sg23
g6
sg24
I91
sg25
I1624396
sg26
I39
sg27
I1573324
sg28
F0.07692307692307693
sg29
g6
ssS'LEMAISTRE CHARLES'
p179
(dp180
g3
g6
sg4
g32
sg5
g6
sg7
g6
sg8
I412878
sg9
g6
sg10
g6
sg11
g6
sg12
I00
sg13
I-25000
sg14
g6
sg15
g6
sg16
g32
sg17
g6
sg18
g32
sg19
I87492
sg20
g6
sg21
g6
sg23
g6
sg24
g6
sg25
I412878
sg26
g6
sg27
g6
sg28
g32
sg29
I112492
ssS'DEFFNER JOSEPH M'
p181
(dp182
g3
I714
sg4
F0.0
sg5
g6
sg7
I600000
sg8
I159211
sg9
I41626
sg10
I115
sg11
I4
sg12
I00
sg13
g6
sg14
I141833
sg15
I335349
sg16
F0.05405405405405406
sg17
I206121
sg18
F0.0
sg19
I1208649
sg20
g6
sg21
S'joseph.deffner@enron.com'
p183
sg23
g6
sg24
I552
sg25
I17378
sg26
I74
sg27
I25553
sg28
F0.013513513513513514
sg29
g6
ssS'KISHKILL JOSEPH G'
p184
(dp185
g3
g6
sg4
g32
sg5
g6
sg7
g6
sg8
I1034346
sg9
I116335
sg10
g6
sg11
g6
sg12
I00
sg13
I-51042
sg14
I1034346
sg15
g6
sg16
g32
sg17
I174246
sg18
g32
sg19
I704896
sg20
g6
sg21
S'joe.kishkill@enron.com'
p186
sg23
g6
sg24
g6
sg25
g6
sg26
g6
sg27
I465357
sg28
g32
sg29
g6
ssS'WHALLEY LAWRENCE G'
p187
(dp188
g3
I6019
sg4
F0.010101010101010102
sg5
g6
sg7
I3000000
sg8
I6079137
sg9
I57838
sg10
I186
sg11
I24
sg12
I00
sg13
g6
sg14
I2796177
sg15
I808346
sg16
F0.0707070707070707
sg17
I510364
sg18
F0.0
sg19
I4677574
sg20
g6
sg21
S'greg.whalley@enron.com'
p189
sg23
g6
sg24
I3920
sg25
I3282960
sg26
I556
sg27
I301026
sg28
F0.24242424242424243
sg29
g6
ssS'MCCONNELL MICHAEL S'
p190
(dp191
g3
I3329
sg4
g32
sg5
g6
sg7
I1100000
sg8
I3101279
sg9
I81364
sg10
I92
sg11
I194
sg12
I00
sg13
g6
sg14
I1478269
sg15
I554422
sg16
g32
sg17
I365038
sg18
g32
sg19
I2101364
sg20
g6
sg21
S'mike.mcconnell@enron.com'
p192
sg23
g6
sg24
I2189
sg25
I1623010
sg26
I2742
sg27
I540
sg28
g32
sg29
g6
ssS'PIRO JIM'
p193
(dp194
g3
I58
sg4
F0.0
sg5
g6
sg7
g6
sg8
I47304
sg9
g6
sg10
I0
sg11
I1
sg12
I00
sg13
g6
sg14
I47304
sg15
g6
sg16
F0.3125
sg17
g6
sg18
F0.0
sg19
g6
sg20
g6
sg21
S'jim.piro@enron.com'
p195
sg23
g6
sg24
I3
sg25
g6
sg26
I16
sg27
g6
sg28
F0.0625
sg29
g6
ssS'DELAINEY DAVID W'
p196
(dp197
g3
I3093
sg4
F0.013033561420658195
sg5
g6
sg7
I3000000
sg8
I3614261
sg9
I86174
sg10
I66
sg11
I609
sg12
I01
sg13
g6
sg14
I1323148
sg15
I1294981
sg16
F0.08993157380254155
sg17
I365163
sg18
F0.008797653958944282
sg19
I4747979
sg20
g6
sg21
S'david.delainey@enron.com'
p198
sg23
g6
sg24
I2097
sg25
I2291113
sg26
I3069
sg27
I1661
sg28
F0.08341479309221245
sg29
g6
ssS'SULLIVAN-SHAKLOVITZ COLLEEN'
p199
(dp200
g3
g6
sg4
F0.0
sg5
I181993
sg7
I100000
sg8
I1362375
sg9
g6
sg10
g6
sg11
g6
sg12
I00
sg13
g6
sg14
g6
sg15
I554422
sg16
F0.027149321266968326
sg17
I162779
sg18
F0.0
sg19
I999356
sg20
g6
sg21
g6
sg23
g6
sg24
g6
sg25
I1362375
sg26
g6
sg27
I162
sg28
F0.22171945701357465
sg29
g6
ssS'WROBEL BRUCE'
p201
(dp202
g3
g6
sg4
g32
sg5
g6
sg7
g6
sg8
I139130
sg9
g6
sg10
g6
sg11
g6
sg12
I00
sg13
g6
sg14
g6
sg15
g6
sg16
g32
sg17
g6
sg18
g32
sg19
g6
sg20
g6
sg21
g6
sg23
g6
sg24
g6
sg25
I139130
sg26
g6
sg27
g6
sg28
g32
sg29
g6
ssS'LINDHOLM TOD A'
p203
(dp204
g3
g6
sg4
g32
sg5
I204075
sg7
I200000
sg8
I3064208
sg9
I57727
sg10
g6
sg11
g6
sg12
I00
sg13
g6
sg14
I514847
sg15
I175000
sg16
g32
sg17
I236457
sg18
g32
sg19
I875889
sg20
g6
sg21
S'tod.lindholm@enron.com'
p205
sg23
g6
sg24
g6
sg25
I2549361
sg26
g6
sg27
I2630
sg28
g32
sg29
g6
ssS'MEYER JEROME J'
p206
(dp207
g3
g6
sg4
g32
sg5
g6
sg7
g6
sg8
g6
sg9
I2151
sg10
g6
sg11
g6
sg12
I00
sg13
I-38346
sg14
g6
sg15
g6
sg16
g32
sg17
g6
sg18
g32
sg19
I2151
sg20
g6
sg21
g6
sg23
g6
sg24
g6
sg25
g6
sg26
g6
sg27
g6
sg28
g32
sg29
I38346
ssS'LAY KENNETH L'
p208
(dp209
g3
I4273
sg4
F0.2777777777777778
sg5
I202911
sg7
I7000000
sg8
I49110078
sg9
I99832
sg10
I123
sg11
I16
sg12
I01
sg13
I-300000
sg14
I14761694
sg15
I3600000
sg16
F0.08333333333333333
sg17
I1072321
sg18
F0.1111111111111111
sg19
I103559793
sg20
I81525000
sg21
S'kenneth.lay@enron.com'
p210
sg23
g6
sg24
I2411
sg25
I34348384
sg26
I36
sg27
I10359729
sg28
F0.1111111111111111
sg29
g6
ssS'BUTTS ROBERT H'
p211
(dp212
g3
g6
sg4
g32
sg5
g6
sg7
I750000
sg8
I417619
sg9
I9410
sg10
g6
sg11
g6
sg12
I00
sg13
I-75000
sg14
I417619
sg15
I175000
sg16
g32
sg17
I261516
sg18
g32
sg19
I1271582
sg20
g6
sg21
S'bob.butts@enron.com'
p213
sg23
g6
sg24
g6
sg25
g6
sg26
g6
sg27
I150656
sg28
g32
sg29
g6
ssS'OLSON CINDY K'
p214
(dp215
g3
I1184
sg4
F0.07692307692307693
sg5
I77716
sg7
I750000
sg8
I2606763
sg9
I63791
sg10
I20
sg11
I15
sg12
I00
sg13
g6
sg14
I969729
sg15
I100000
sg16
F0.057692307692307696
sg17
I329078
sg18
F0.0
sg19
I1321557
sg20
g6
sg21
S'cindy.olson@enron.com'
p216
sg23
g6
sg24
I856
sg25
I1637034
sg26
I52
sg27
I972
sg28
F0.057692307692307696
sg29
g6
ssS'MCDONALD REBECCA'
p217
(dp218
g3
I894
sg4
F0.0
sg5
g6
sg7
g6
sg8
I1691366
sg9
g6
sg10
I54
sg11
I1
sg12
I00
sg13
g6
sg14
I934065
sg15
g6
sg16
F0.23076923076923078
sg17
g6
sg18
F0.0
sg19
g6
sg20
g6
sg21
S'rebecca.mcdonald@enron.com'
p219
sg23
g6
sg24
I720
sg25
I757301
sg26
I13
sg27
g6
sg28
F0.0
sg29
g6
ssS'CUMBERLAND MICHAEL S'
p220
(dp221
g3
g6
sg4
g32
sg5
g6
sg7
I325000
sg8
I207940
sg9
I22344
sg10
g6
sg11
g6
sg12
I00
sg13
g6
sg14
I207940
sg15
I275000
sg16
g32
sg17
I184899
sg18
g32
sg19
I807956
sg20
g6
sg21
g6
sg23
g6
sg24
g6
sg25
g6
sg26
g6
sg27
I713
sg28
g32
sg29
g6
ssS'GAHN ROBERT S'
p222
(dp223
g3
g6
sg4
g32
sg5
I73122
sg7
I509870
sg8
I318607
sg9
I50080
sg10
g6
sg11
g6
sg12
I00
sg13
I-1042
sg14
I235370
sg15
g6
sg16
g32
sg17
I192008
sg18
g32
sg19
I900585
sg20
g6
sg21
g6
sg23
g6
sg24
g6
sg25
I83237
sg26
g6
sg27
I76547
sg28
g32
sg29
g6
ssS'MCCLELLAN GEORGE'
p224
(dp225
g3
I1744
sg4
F0.0
sg5
g6
sg7
I900000
sg8
I947861
sg9
I228763
sg10
I52
sg11
I0
sg12
I00
sg13
I-125000
sg14
I441096
sg15
g6
sg16
F0.061224489795918366
sg17
I263413
sg18
F0.0
sg19
I1318763
sg20
g6
sg21
S'george.mcclellan@enron.com'
p226
sg23
g6
sg24
I1469
sg25
I506765
sg26
I49
sg27
I51587
sg28
F0.12244897959183673
sg29
g6
ssS'HERMANN ROBERT J'
p227
(dp228
g3
g6
sg4
g32
sg5
g6
sg7
I700000
sg8
I668132
sg9
I48357
sg10
g6
sg11
g6
sg12
I00
sg13
I-280000
sg14
I480632
sg15
I150000
sg16
g32
sg17
I262663
sg18
g32
sg19
I1297461
sg20
g6
sg21
S'robert.hermann@enron.com'
p229
sg23
g6
sg24
g6
sg25
I187500
sg26
g6
sg27
I416441
sg28
g32
sg29
g6
ssS'SCRIMSHAW MATTHEW'
p230
(dp231
g3
g6
sg4
g32
sg5
g6
sg7
g6
sg8
I759557
sg9
g6
sg10
g6
sg11
g6
sg12
I00
sg13
g6
sg14
g6
sg15
g6
sg16
g32
sg17
g6
sg18
g32
sg19
g6
sg20
g6
sg21
S'matthew.scrimshaw@enron.com'
p232
sg23
g6
sg24
g6
sg25
I759557
sg26
g6
sg27
g6
sg28
g32
sg29
g6
ssS'GATHMANN WILLIAM D'
p233
(dp234
g3
g6
sg4
g32
sg5
g6
sg7
g6
sg8
I1945360
sg9
g6
sg10
g6
sg11
g6
sg12
I00
sg13
g6
sg14
I264013
sg15
g6
sg16
g32
sg17
g6
sg18
g32
sg19
g6
sg20
g6
sg21
g6
sg23
I-72419
sg24
g6
sg25
I1753766
sg26
g6
sg27
g6
sg28
g32
sg29
g6
ssS'HAEDICKE MARK E'
p235
(dp236
g3
I4009
sg4
F0.010819165378670788
sg5
I2157527
sg7
I1150000
sg8
I803094
sg9
I76169
sg10
I180
sg11
I61
sg12
I00
sg13
I-934484
sg14
I524169
sg15
I983346
sg16
F0.10767645543534261
sg17
I374125
sg18
F0.0020607934054611026
sg19
I3859065
sg20
g6
sg21
S'mark.haedicke@enron.com'
p237
sg23
I-329825
sg24
I1847
sg25
I608750
sg26
I1941
sg27
I52382
sg28
F0.07006697578567748
sg29
g6
ssS'BOWEN JR RAYMOND M'
p238
(dp239
g3
I1858
sg4
F0.1111111111111111
sg5
g6
sg7
I1350000
sg8
I252055
sg9
I65907
sg10
I140
sg11
I15
sg12
I01
sg13
I-833
sg14
I252055
sg15
I974293
sg16
F0.14814814814814814
sg17
I278601
sg18
F0.0
sg19
I2669589
sg20
g6
sg21
S'raymond.bowen@enron.com'
p240
sg23
g6
sg24
I1593
sg25
g6
sg26
I27
sg27
I1621
sg28
F0.0
sg29
g6
ssS'GILLIS JOHN'
p241
(dp242
g3
g6
sg4
g32
sg5
g6
sg7
g6
sg8
I85641
sg9
g6
sg10
g6
sg11
g6
sg12
I00
sg13
g6
sg14
I75838
sg15
g6
sg16
g32
sg17
g6
sg18
g32
sg19
g6
sg20
g6
sg21
g6
sg23
g6
sg24
g6
sg25
I9803
sg26
g6
sg27
g6
sg28
g32
sg29
g6
ssS'FITZGERALD JAY L'
p243
(dp244
g3
I936
sg4
F0.0
sg5
g6
sg7
I350000
sg8
I1621236
sg9
I23870
sg10
I1
sg11
I8
sg12
I00
sg13
g6
sg14
I956775
sg15
I556416
sg16
F0.4375
sg17
I199157
sg18
F0.0
sg19
I1414857
sg20
g6
sg21
S'jay.fitzgerald@enron.com'
p245
sg23
g6
sg24
I723
sg25
I664461
sg26
I16
sg27
I285414
sg28
F0.25
sg29
g6
ssS'MORAN MICHAEL P'
p246
(dp247
g3
I672
sg4
F0.0
sg5
g6
sg7
g6
sg8
I221141
sg9
g6
sg10
I0
sg11
I0
sg12
I00
sg13
g6
sg14
I161602
sg15
g6
sg16
F0.0
sg17
g6
sg18
F0.0
sg19
g6
sg20
g6
sg21
S'michael.moran@enron.com'
p248
sg23
g6
sg24
I127
sg25
I59539
sg26
I19
sg27
g6
sg28
F0.0
sg29
g6
ssS'REDMOND BRIAN L'
p249
(dp250
g3
I1671
sg4
F0.013574660633484163
sg5
g6
sg7
g6
sg8
I7890324
sg9
I14689
sg10
I204
sg11
I49
sg12
I00
sg13
g6
sg14
I381285
sg15
g6
sg16
F0.09954751131221719
sg17
I96840
sg18
F0.0
sg19
I111529
sg20
g6
sg21
S'brian.redmond@enron.com'
p251
sg23
g6
sg24
I1063
sg25
I7509039
sg26
I221
sg27
g6
sg28
F0.07692307692307693
sg29
g6
ssS'BAZELIDES PHILIP J'
p252
(dp253
g3
g6
sg4
g32
sg5
I684694
sg7
g6
sg8
I1599641
sg9
g6
sg10
g6
sg11
g6
sg12
I00
sg13
g6
sg14
g6
sg15
I93750
sg16
g32
sg17
I80818
sg18
g32
sg19
I860136
sg20
g6
sg21
g6
sg23
g6
sg24
g6
sg25
I1599641
sg26
g6
sg27
I874
sg28
g32
sg29
g6
ssS'BELDEN TIMOTHY N'
p254
(dp255
g3
I7991
sg4
F0.03305785123966942
sg5
I2144013
sg7
I5249999
sg8
I1110705
sg9
I17355
sg10
I228
sg11
I108
sg12
I01
sg13
I-2334434
sg14
I157569
sg15
g6
sg16
F0.13636363636363635
sg17
I213999
sg18
F0.004132231404958678
sg19
I5501630
sg20
g6
sg21
S'tim.belden@enron.com'
p256
sg23
g6
sg24
I5521
sg25
I953136
sg26
I484
sg27
I210698
sg28
F0.12396694214876033
sg29
g6
ssS'DURAN WILLIAM D'
p257
(dp258
g3
I904
sg4
F0.0
sg5
g6
sg7
I750000
sg8
I1640910
sg9
I25785
sg10
I106
sg11
I3
sg12
I00
sg13
g6
sg14
I189041
sg15
I1105218
sg16
F0.0
sg17
I210692
sg18
F0.0
sg19
I2093263
sg20
g6
sg21
S'w.duran@enron.com'
p259
sg23
g6
sg24
I599
sg25
I1451869
sg26
I12
sg27
I1568
sg28
F0.08333333333333333
sg29
g6
ssS'THORN TERENCE H'
p260
(dp261
g3
I266
sg4
F0.1951219512195122
sg5
I16586
sg7
g6
sg8
I4817796
sg9
I46145
sg10
I0
sg11
I0
sg12
I00
sg13
g6
sg14
I365320
sg15
I200000
sg16
F0.6829268292682927
sg17
I222093
sg18
F0.0
sg19
I911453
sg20
g6
sg21
S'terence.thorn@enron.com'
p262
sg23
g6
sg24
I73
sg25
I4452476
sg26
I41
sg27
I426629
sg28
F0.5121951219512195
sg29
g6
ssS'FASTOW ANDREW S'
p263
(dp264
g3
g6
sg4
g32
sg5
g6
sg7
I1300000
sg8
I1794412
sg9
I55921
sg10
g6
sg11
g6
sg12
I01
sg13
I-1386055
sg14
I1794412
sg15
I1736055
sg16
g32
sg17
I440698
sg18
g32
sg19
I2424083
sg20
g6
sg21
S'andrew.fastow@enron.com'
p265
sg23
g6
sg24
g6
sg25
g6
sg26
g6
sg27
I277464
sg28
g32
sg29
g6
ssS'FOY JOE'
p266
(dp267
g3
I57
sg4
g32
sg5
I181755
sg7
g6
sg8
I343434
sg9
g6
sg10
I0
sg11
I0
sg12
I00
sg13
g6
sg14
g6
sg15
g6
sg16
g32
sg17
g6
sg18
g32
sg19
I181755
sg20
g6
sg21
S'tracy.foy@enron.com'
p268
sg23
g6
sg24
I2
sg25
I343434
sg26
I13
sg27
g6
sg28
g32
sg29
g6
ssS'CALGER CHRISTOPHER F'
p269
(dp270
g3
I2598
sg4
F0.013888888888888888
sg5
g6
sg7
I1250000
sg8
I126027
sg9
I35818
sg10
I199
sg11
I25
sg12
I01
sg13
I-262500
sg14
I126027
sg15
I375304
sg16
F0.125
sg17
I240189
sg18
F0.0
sg19
I1639297
sg20
g6
sg21
S'christopher.calger@enron.com'
p271
sg23
g6
sg24
I2188
sg25
g6
sg26
I144
sg27
I486
sg28
F0.2152777777777778
sg29
g6
ssS'RICE KENNETH D'
p272
(dp273
g3
I905
sg4
F0.0
sg5
g6
sg7
I1750000
sg8
I22542539
sg9
I46950
sg10
I42
sg11
I4
sg12
I01
sg13
I-3504386
sg14
I2748364
sg15
I1617011
sg16
F0.0
sg17
I420636
sg18
F0.0
sg19
I505050
sg20
g6
sg21
S'ken.rice@enron.com'
p274
sg23
g6
sg24
I864
sg25
I19794175
sg26
I18
sg27
I174839
sg28
F0.0
sg29
g6
ssS'KAMINSKI WINCENTY J'
p275
(dp276
g3
I4607
sg4
F0.012028869286287089
sg5
g6
sg7
I400000
sg8
I976037
sg9
I83585
sg10
I41
sg11
I171
sg12
I00
sg13
g6
sg14
I126027
sg15
I323466
sg16
F0.04891740176423416
sg17
I275101
sg18
F0.0032076984763432237
sg19
I1086821
sg20
g6
sg21
S'vince.kaminski@enron.com'
p277
sg23
g6
sg24
I583
sg25
I850010
sg26
I14368
sg27
I4669
sg28
F0.1218925421010425
sg29
g6
ssS'LOCKHART EUGENE E'
p278
(dp279
g3
g6
sg4
g32
sg5
g6
sg7
g6
sg8
g6
sg9
g6
sg10
g6
sg11
g6
sg12
I00
sg13
g6
sg14
g6
sg15
g6
sg16
g32
sg17
g6
sg18
g32
sg19
g6
sg20
g6
sg21
g6
sg23
g6
sg24
g6
sg25
g6
sg26
g6
sg27
g6
sg28
g32
sg29
g6
ssS'COX DAVID'
p280
(dp281
g3
I102
sg4
g32
sg5
g6
sg7
I800000
sg8
I495633
sg9
I27861
sg10
I0
sg11
I4
sg12
I00
sg13
I-41250
sg14
I378082
sg15
g6
sg16
g32
sg17
I314288
sg18
g32
sg19
I1101393
sg20
g6
sg21
S'chip.cox@enron.com'
p282
sg23
g6
sg24
I71
sg25
I117551
sg26
I33
sg27
I494
sg28
g32
sg29
g6
ssS'OVERDYKE JR JERE C'
p283
(dp284
g3
g6
sg4
g32
sg5
g6
sg7
g6
sg8
I7307594
sg9
I18834
sg10
g6
sg11
g6
sg12
I00
sg13
g6
sg14
I2041016
sg15
I135836
sg16
g32
sg17
I94941
sg18
g32
sg19
I249787
sg20
g6
sg21
S'jere.overdyke@enron.com'
p285
sg23
g6
sg24
g6
sg25
I5266578
sg26
g6
sg27
I176
sg28
g32
sg29
g6
ssS'PEREIRA PAULO V. FERRAZ'
p286
(dp287
g3
g6
sg4
g32
sg5
g6
sg7
g6
sg8
g6
sg9
I27942
sg10
g6
sg11
g6
sg12
I00
sg13
I-101250
sg14
g6
sg15
g6
sg16
g32
sg17
g6
sg18
g32
sg19
I27942
sg20
g6
sg21
g6
sg23
g6
sg24
g6
sg25
g6
sg26
g6
sg27
g6
sg28
g32
sg29
I101250
ssS'STABLER FRANK'
p288
(dp289
g3
g6
sg4
g32
sg5
g6
sg7
I500000
sg8
I511734
sg9
I16514
sg10
g6
sg11
g6
sg12
I00
sg13
g6
sg14
I511734
sg15
g6
sg16
g32
sg17
I239502
sg18
g32
sg19
I1112087
sg20
g6
sg21
S'frank.stabler@enron.com'
p290
sg23
g6
sg24
g6
sg25
g6
sg26
g6
sg27
I356071
sg28
g32
sg29
g6
ssS'SKILLING JEFFREY K'
p291
(dp292
g3
I3627
sg4
F0.027777777777777776
sg5
g6
sg7
I5600000
sg8
I26093672
sg9
I29336
sg10
I88
sg11
I30
sg12
I01
sg13
g6
sg14
I6843672
sg15
I1920000
sg16
F0.018518518518518517
sg17
I1111258
sg18
F0.0
sg19
I8682716
sg20
g6
sg21
S'jeff.skilling@enron.com'
p293
sg23
g6
sg24
I2042
sg25
I19250000
sg26
I108
sg27
I22122
sg28
F0.018518518518518517
sg29
g6
ssS'BLAKE JR. NORMAN P'
p294
(dp295
g3
g6
sg4
g32
sg5
g6
sg7
g6
sg8
g6
sg9
I1279
sg10
g6
sg11
g6
sg12
I00
sg13
I-113784
sg14
g6
sg15
g6
sg16
g32
sg17
g6
sg18
g32
sg19
I1279
sg20
g6
sg21
g6
sg23
g6
sg24
g6
sg25
g6
sg26
g6
sg27
g6
sg28
g32
sg29
I113784
ssS'SHERRICK JEFFREY B'
p296
(dp297
g3
I613
sg4
F0.0
sg5
g6
sg7
g6
sg8
I1832468
sg9
g6
sg10
I39
sg11
I18
sg12
I00
sg13
g6
sg14
I405999
sg15
g6
sg16
F0.64
sg17
g6
sg18
F0.0
sg19
g6
sg20
g6
sg21
S'jeffrey.sherrick@enron.com'
p298
sg23
g6
sg24
I583
sg25
I1426469
sg26
I25
sg27
g6
sg28
F0.36
sg29
g6
ssS'PRENTICE JAMES'
p299
(dp300
g3
g6
sg4
g32
sg5
I564348
sg7
g6
sg8
I1095040
sg9
g6
sg10
g6
sg11
g6
sg12
I00
sg13
g6
sg14
I208809
sg15
g6
sg16
g32
sg17
g6
sg18
g32
sg19
I564348
sg20
g6
sg21
S'james.prentice@enron.com'
p301
sg23
g6
sg24
g6
sg25
I886231
sg26
g6
sg27
g6
sg28
g32
sg29
g6
ssS'GRAY RODNEY'
p302
(dp303
g3
g6
sg4
g32
sg5
I93585
sg7
g6
sg8
g6
sg9
g6
sg10
g6
sg11
g6
sg12
I00
sg13
g6
sg14
g6
sg15
I365625
sg16
g32
sg17
I6615
sg18
g32
sg19
I1146658
sg20
g6
sg21
g6
sg23
g6
sg24
g6
sg25
g6
sg26
g6
sg27
I680833
sg28
g32
sg29
g6
ssS'PICKERING MARK R'
p304
(dp305
g3
I898
sg4
F0.05970149253731343
sg5
g6
sg7
I300000
sg8
I28798
sg9
I31653
sg10
I7
sg11
I0
sg12
I00
sg13
g6
sg14
g6
sg15
g6
sg16
F0.05970149253731343
sg17
I655037
sg18
F0.0
sg19
I1386690
sg20
I400000
sg21
S'mark.pickering@enron.com'
p306
sg23
g6
sg24
I728
sg25
I28798
sg26
I67
sg27
g6
sg28
F0.04477611940298507
sg29
g6
ssS'THE TRAVEL AGENCY IN THE PARK'
p307
(dp308
g3
g6
sg4
g32
sg5
g6
sg7
g6
sg8
g6
sg9
g6
sg10
g6
sg11
g6
sg12
I00
sg13
g6
sg14
g6
sg15
g6
sg16
g32
sg17
g6
sg18
g32
sg19
I362096
sg20
g6
sg21
g6
sg23
g6
sg24
g6
sg25
g6
sg26
g6
sg27
I362096
sg28
g32
sg29
g6
ssS'NOLES JAMES L'
p309
(dp310
g3
g6
sg4
g32
sg5
I774401
sg7
g6
sg8
I368705
sg9
g6
sg10
g6
sg11
g6
sg12
I00
sg13
g6
sg14
I463261
sg15
g6
sg16
g32
sg17
g6
sg18
g32
sg19
I774401
sg20
g6
sg21
g6
sg23
I-94556
sg24
g6
sg25
g6
sg26
g6
sg27
g6
sg28
g32
sg29
g6
ssS'KEAN STEVEN J'
p311
(dp312
g3
I12754
sg4
F0.03343689894954875
sg5
g6
sg7
I1000000
sg8
I6153642
sg9
I41953
sg10
I140
sg11
I387
sg12
I00
sg13
g6
sg14
I4131594
sg15
I300000
sg16
F0.14573161710312177
sg17
I404338
sg18
F0.027518863737239236
sg19
I1747522
sg20
g6
sg21
S'steven.kean@enron.com'
p313
sg23
g6
sg24
I3639
sg25
I2022048
sg26
I6759
sg27
I1231
sg28
F0.22473738718745376
sg29
g6
ssS'TOTAL'
p314
(dp315
g3
g6
sg4
g32
sg5
I32083396
sg7
I97343619
sg8
I434509511
sg9
I5235198
sg10
g6
sg11
g6
sg12
I00
sg13
I-27992891
sg14
I130322299
sg15
I48521928
sg16
g32
sg17
I26704229
sg18
g32
sg19
I309886585
sg20
I83925000
sg21
g6
sg23
I-7576788
sg24
g6
sg25
I311764000
sg26
g6
sg27
I42667589
sg28
g32
sg29
I1398517
ssS'FOWLER PEGGY'
p316
(dp317
g3
I517
sg4
g32
sg5
g6
sg7
g6
sg8
I1884748
sg9
g6
sg10
I0
sg11
I0
sg12
I00
sg13
g6
sg14
I560170
sg15
g6
sg16
g32
sg17
g6
sg18
g32
sg19
g6
sg20
g6
sg21
S'kulvinder.fowler@enron.com'
p318
sg23
g6
sg24
I10
sg25
I1324578
sg26
I36
sg27
g6
sg28
g32
sg29
g6
ssS'WASAFF GEORGE'
p319
(dp320
g3
I400
sg4
F0.03333333333333333
sg5
I831299
sg7
I325000
sg8
I2056427
sg9
g6
sg10
I22
sg11
I7
sg12
I00
sg13
I-583325
sg14
I388167
sg15
I200000
sg16
F0.36666666666666664
sg17
I259996
sg18
F0.0
sg19
I1034395
sg20
g6
sg21
S'george.wasaff@enron.com'
p321
sg23
g6
sg24
I337
sg25
I1668260
sg26
I30
sg27
I1425
sg28
F0.16666666666666666
sg29
g6
ssS'WHITE JR THOMAS E'
p322
(dp323
g3
g6
sg4
g32
sg5
g6
sg7
I450000
sg8
I15144123
sg9
I81353
sg10
g6
sg11
g6
sg12
I00
sg13
g6
sg14
I13847074
sg15
g6
sg16
g32
sg17
I317543
sg18
g32
sg19
I1934359
sg20
g6
sg21
S'thomas.white@enron.com'
p324
sg23
g6
sg24
g6
sg25
I1297049
sg26
g6
sg27
I1085463
sg28
g32
sg29
g6
ssS'CHRISTODOULOU DIOMEDES'
p325
(dp326
g3
g6
sg4
g32
sg5
g6
sg7
g6
sg8
I6077885
sg9
g6
sg10
g6
sg11
g6
sg12
I00
sg13
g6
sg14
I950730
sg15
g6
sg16
g32
sg17
g6
sg18
g32
sg19
g6
sg20
g6
sg21
S'diomedes.christodoulou@enron.com'
p327
sg23
g6
sg24
g6
sg25
I5127155
sg26
g6
sg27
g6
sg28
g32
sg29
g6
ssS'ALLEN PHILLIP K'
p328
(dp329
g3
I2902
sg4
F0.009567198177676537
sg5
I2869717
sg7
I4175000
sg8
I1729541
sg9
I13868
sg10
I47
sg11
I65
sg12
I00
sg13
I-3081055
sg14
I126027
sg15
I304805
sg16
F0.05284738041002278
sg17
I201955
sg18
F0.0036446469248291574
sg19
I4484442
sg20
g6
sg21
S'phillip.allen@enron.com'
p330
sg23
I-126027
sg24
I1407
sg25
I1729541
sg26
I2195
sg27
I152
sg28
F0.03963553530751709
sg29
g6
ssS'SHARP VICTORIA T'
p331
(dp332
g3
I3136
sg4
g32
sg5
I187469
sg7
I600000
sg8
I494136
sg9
I116337
sg10
I24
sg11
I6
sg12
I00
sg13
g6
sg14
I213063
sg15
I422158
sg16
g32
sg17
I248146
sg18
g32
sg19
I1576511
sg20
g6
sg21
S'vicki.sharp@enron.com'
p333
sg23
g6
sg24
I2477
sg25
I281073
sg26
I136
sg27
I2401
sg28
g32
sg29
g6
ssS'JAEDICKE ROBERT'
p334
(dp335
g3
g6
sg4
g32
sg5
g6
sg7
g6
sg8
I431750
sg9
g6
sg10
g6
sg11
g6
sg12
I00
sg13
I-25000
sg14
I44093
sg15
g6
sg16
g32
sg17
g6
sg18
g32
sg19
I83750
sg20
g6
sg21
g6
sg23
I-44093
sg24
g6
sg25
I431750
sg26
g6
sg27
g6
sg28
g32
sg29
I108750
ssS'WINOKUR JR. HERBERT S'
p336
(dp337
g3
g6
sg4
g32
sg5
g6
sg7
g6
sg8
g6
sg9
I1413
sg10
g6
sg11
g6
sg12
I00
sg13
I-25000
sg14
g6
sg15
g6
sg16
g32
sg17
g6
sg18
g32
sg19
I84992
sg20
g6
sg21
g6
sg23
g6
sg24
g6
sg25
g6
sg26
g6
sg27
g6
sg28
g32
sg29
I108579
ssS'BROWN MICHAEL'
p338
(dp339
g3
I1486
sg4
F0.0
sg5
g6
sg7
g6
sg8
g6
sg9
I49288
sg10
I13
sg11
I1
sg12
I00
sg13
g6
sg14
g6
sg15
g6
sg16
F0.6829268292682927
sg17
g6
sg18
F0.07317073170731707
sg19
I49288
sg20
g6
sg21
S'michael.brown@enron.com'
p340
sg23
g6
sg24
I761
sg25
g6
sg26
I41
sg27
g6
sg28
F0.43902439024390244
sg29
g6
ssS'BADUM JAMES P'
p341
(dp342
g3
g6
sg4
g32
sg5
I178980
sg7
g6
sg8
I257817
sg9
I3486
sg10
g6
sg11
g6
sg12
I00
sg13
g6
sg14
g6
sg15
g6
sg16
g32
sg17
g6
sg18
g32
sg19
I182466
sg20
g6
sg21
g6
sg23
g6
sg24
g6
sg25
I257817
sg26
g6
sg27
g6
sg28
g32
sg29
g6
ssS'HUGHES JAMES A'
p343
(dp344
g3
I719
sg4
F0.0
sg5
g6
sg7
g6
sg8
I1118394
sg9
g6
sg10
I35
sg11
I5
sg12
I00
sg13
g6
sg14
I363428
sg15
g6
sg16
F0.0
sg17
g6
sg18
F0.0
sg19
g6
sg20
g6
sg21
S'james.hughes@enron.com'
p345
sg23
g6
sg24
I589
sg25
I754966
sg26
I34
sg27
g6
sg28
F0.029411764705882353
sg29
g6
ssS'REYNOLDS LAWRENCE'
p346
(dp347
g3
g6
sg4
g32
sg5
I51365
sg7
I100000
sg8
I4221891
sg9
I8409
sg10
g6
sg11
g6
sg12
I00
sg13
I-200000
sg14
I201483
sg15
I156250
sg16
g32
sg17
I76399
sg18
g32
sg19
I394475
sg20
g6
sg21
g6
sg23
I-140264
sg24
g6
sg25
I4160672
sg26
g6
sg27
I202052
sg28
g32
sg29
g6
ssS'DIMICHELE RICHARD G'
p348
(dp349
g3
g6
sg4
g32
sg5
g6
sg7
I1000000
sg8
I8317782
sg9
I35812
sg10
g6
sg11
g6
sg12
I00
sg13
g6
sg14
I126027
sg15
I694862
sg16
g32
sg17
I262788
sg18
g32
sg19
I2368151
sg20
g6
sg21
S'richard.dimichele@enron.com'
p350
sg23
g6
sg24
g6
sg25
I8191755
sg26
g6
sg27
I374689
sg28
g32
sg29
g6
ssS'BHATNAGAR SANJAY'
p351
(dp352
g3
I523
sg4
F0.0
sg5
g6
sg7
g6
sS'total_stock_value'
p353
S'NaN'
p354
sg9
g6
sg10
I0
sg11
I1
sg12
I00
sg13
g6
sg14
I-2604490
sg15
g6
sg16
F0.41379310344827586
sg17
g6
sg18
F0.0
sg19
I15456290
sg20
g6
sg21
S'sanjay.bhatnagar@enron.com'
p355
sg23
I15456290
sg24
I463
sg25
I2604490
sg26
I29
sg27
I137864
sg28
F0.10344827586206896
sg29
I137864
ssS'CARTER REBECCA C'
p356
(dp357
g3
I312
sg4
F0.0
sg5
g6
sg7
I300000
sg8
g6
sg9
g6
sg10
I29
sg11
I7
sg12
I00
sg13
I-159792
sg14
I307301
sg15
I75000
sg16
F0.0
sg17
I261809
sg18
F0.0
sg19
I477557
sg20
g6
sg21
S'rebecca.carter@enron.com'
p358
sg23
I-307301
sg24
I196
sg25
g6
sg26
I15
sg27
I540
sg28
F0.0
sg29
g6
ssS'BUCHANAN HAROLD G'
p359
(dp360
g3
I1088
sg4
g32
sg5
g6
sg7
I500000
sg8
I1014505
sg9
I600
sg10
I0
sg11
I0
sg12
I00
sg13
g6
sg14
I189041
sg15
I304805
sg16
g32
sg17
I248017
sg18
g32
sg19
I1054637
sg20
g6
sg21
S'john.buchanan@enron.com'
p361
sg23
g6
sg24
I23
sg25
I825464
sg26
I125
sg27
I1215
sg28
g32
sg29
g6
ssS'YEAP SOON'
p362
(dp363
g3
g6
sg4
g32
sg5
g6
sg7
g6
sg8
I192758
sg9
I55097
sg10
g6
sg11
g6
sg12
I00
sg13
g6
sg14
g6
sg15
g6
sg16
g32
sg17
g6
sg18
g32
sg19
I55097
sg20
g6
sg21
g6
sg23
g6
sg24
g6
sg25
I192758
sg26
g6
sg27
g6
sg28
g32
sg29
g6
ssS'MURRAY JULIA H'
p364
(dp365
g3
I2192
sg4
F0.0
sg5
g6
sg7
I400000
sg8
I597461
sg9
I57580
sg10
I11
sg11
I2
sg12
I00
sg13
g6
sg14
I196983
sg15
I125000
sg16
F0.044444444444444446
sg17
I229284
sg18
F0.0
sg19
I812194
sg20
g6
sg21
S'julia.murray@enron.com'
p366
sg23
g6
sg24
I395
sg25
I400478
sg26
I45
sg27
I330
sg28
F0.0
sg29
g6
ssS'GARLAND C KEVIN'
p367
(dp368
g3
I209
sg4
F0.06818181818181818
sg5
g6
sg7
I850000
sg8
I896153
sg9
I48405
sg10
I10
sg11
I27
sg12
I00
sg13
g6
sg14
I259907
sg15
I375304
sg16
F0.0
sg17
I231946
sg18
F0.0
sg19
I1566469
sg20
g6
sg21
S'kevin.garland@enron.com'
p369
sg23
g6
sg24
I178
sg25
I636246
sg26
I44
sg27
I60814
sg28
F0.045454545454545456
sg29
g6
ssS'DODSON KEITH'
p370
(dp371
g3
I176
sg4
F0.0
sg5
g6
sg7
I70000
sg8
g6
sg9
I28164
sg10
I10
sg11
I3
sg12
I00
sg13
g6
sg14
g6
sg15
g6
sg16
F0.21428571428571427
sg17
I221003
sg18
F0.0
sg19
I319941
sg20
g6
sg21
S'keith.dodson@enron.com'
p372
sg23
g6
sg24
I114
sg25
g6
sg26
I14
sg27
I774
sg28
F0.0
sg29
g6
ssS'YEAGER F SCOTT'
p373
(dp374
g3
g6
sg4
g32
sg5
g6
sg7
g6
sg8
I11884758
sg9
I53947
sg10
g6
sg11
g6
sg12
I01
sg13
g6
sg14
I3576206
sg15
g6
sg16
g32
sg17
I158403
sg18
g32
sg19
I360300
sg20
g6
sg21
S'scott.yeager@enron.com'
p375
sg23
g6
sg24
g6
sg25
I8308552
sg26
g6
sg27
I147950
sg28
g32
sg29
g6
ssS'HIRKO JOSEPH'
p376
(dp377
g3
g6
sg4
g32
sg5
I10259
sg7
g6
sg8
I30766064
sg9
I77978
sg10
g6
sg11
g6
sg12
I01
sg13
g6
sg14
g6
sg15
g6
sg16
g32
sg17
g6
sg18
g32
sg19
I91093
sg20
g6
sg21
S'joe.hirko@enron.com'
p378
sg23
g6
sg24
g6
sg25
I30766064
sg26
g6
sg27
I2856
sg28
g32
sg29
g6
ssS'DIETRICH JANET R'
p379
(dp380
g3
I2572
sg4
F0.0
sg5
g6
sg7
I600000
sg8
I1865087
sg9
I3475
sg10
I305
sg11
I14
sg12
I00
sg13
g6
sg14
I315068
sg15
I556416
sg16
F0.36507936507936506
sg17
I250100
sg18
F0.0
sg19
I1410464
sg20
g6
sg21
S'janet.dietrich@enron.com'
p381
sg23
g6
sg24
I1902
sg25
I1550019
sg26
I63
sg27
I473
sg28
F0.0
sg29
g6
ssS'DERRICK JR. JAMES V'
p382
(dp383
g3
I2181
sg4
F0.014301430143014302
sg5
g6
sg7
I800000
sg8
I8831913
sg9
I51124
sg10
I64
sg11
I20
sg12
I00
sg13
I-1284000
sg14
I1787380
sg15
I484000
sg16
F0.0814081408140814
sg17
I492375
sg18
F0.0242024202420242
sg19
I550981
sg20
g6
sg21
S'james.derrick@enron.com'
p384
sg23
I-1787380
sg24
I1401
sg25
I8831913
sg26
I909
sg27
I7482
sg28
F0.08250825082508251
sg29
g6
ssS'FREVERT MARK A'
p385
(dp386
g3
I3275
sg4
F0.0
sg5
I6426990
sg7
I2000000
sg8
I14622185
sg9
I86987
sg10
I242
sg11
I6
sg12
I00
sg13
I-3367011
sg14
I4188667
sg15
I1617011
sg16
F0.19047619047619047
sg17
I1060932
sg18
F0.0
sg19
I17252530
sg20
I2000000
sg21
S'mark.frevert@enron.com'
p387
sg23
g6
sg24
I2979
sg25
I10433518
sg26
I21
sg27
I7427621
sg28
F0.0
sg29
g6
ssS'PAI LOU L'
p388
(dp389
g3
g6
sg4
g32
sg5
g6
sg7
I1000000
sg8
I23817930
sg9
I32047
sg10
g6
sg11
g6
sg12
I00
sg13
g6
sg14
I8453763
sg15
g6
sg16
g32
sg17
I261879
sg18
g32
sg19
I3123383
sg20
g6
sg21
S'lou.pai@enron.com'
p390
sg23
g6
sg24
g6
sg25
I15364167
sg26
g6
sg27
I1829457
sg28
g32
sg29
g6
ssS'BAY FRANKLIN R'
p391
(dp392
g3
g6
sg4
g32
sg5
I260455
sg7
I400000
sg8
I63014
sg9
I129142
sg10
g6
sg11
g6
sg12
I00
sg13
I-201641
sg14
I145796
sg15
g6
sg16
g32
sg17
I239671
sg18
g32
sg19
I827696
sg20
g6
sg21
S'frank.bay@enron.com'
p393
sg23
I-82782
sg24
g6
sg25
g6
sg26
g6
sg27
I69
sg28
g32
sg29
g6
ssS'HAYSLETT RODERICK J'
p394
(dp395
g3
I2649
sg4
F0.005655042412818096
sg5
g6
sg7
g6
sg8
I346663
sg9
g6
sg10
I35
sg11
I38
sg12
I00
sg13
g6
sg14
I346663
sg15
g6
sg16
F0.08105560791705937
sg17
g6
sg18
F0.000942507068803016
sg19
g6
sg20
g6
sg21
S'rod.hayslett@enron.com'
p396
sg23
g6
sg24
I571
sg25
g6
sg26
I1061
sg27
g6
sg28
F0.07163053722902922
sg29
g6
ssS'FUGH JOHN L'
p397
(dp398
g3
g6
sg4
g32
sg5
I50591
sg7
g6
sg8
I176378
sg9
g6
sg10
g6
sg11
g6
sg12
I00
sg13
g6
sg14
g6
sg15
g6
sg16
g32
sg17
g6
sg18
g32
sg19
I50591
sg20
g6
sg21
g6
sg23
g6
sg24
g6
sg25
I176378
sg26
g6
sg27
g6
sg28
g32
sg29
g6
ssS'FALLON JAMES B'
p399
(dp400
g3
I1755
sg4
g32
sg5
g6
sg7
I2500000
sg8
I2332399
sg9
I95924
sg10
I42
sg11
I37
sg12
I00
sg13
g6
sg14
I1392142
sg15
I374347
sg16
g32
sg17
I304588
sg18
g32
sg19
I3676340
sg20
g6
sg21
S'jim.fallon@enron.com'
p401
sg23
g6
sg24
I1604
sg25
I940257
sg26
I75
sg27
I401481
sg28
g32
sg29
g6
ssS'KOENIG MARK E'
p402
(dp403
g3
I2374
sg4
F0.06557377049180328
sg5
g6
sg7
I700000
sg8
I1920055
sg9
I127017
sg10
I53
sg11
I15
sg12
I01
sg13
g6
sg14
I1248318
sg15
I300000
sg16
F0.4262295081967213
sg17
I309946
sg18
F0.06557377049180328
sg19
I1587421
sg20
g6
sg21
S'mark.koenig@enron.com'
p404
sg23
g6
sg24
I2271
sg25
I671737
sg26
I61
sg27
I150458
sg28
F0.6065573770491803
sg29
g6
ssS'SAVAGE FRANK'
p405
(dp406
g3
g6
sg4
g32
sg5
g6
sg7
g6
sg8
g6
sg9
g6
sg10
g6
sg11
g6
sg12
I00
sg13
I-121284
sg14
g6
sg15
g6
sg16
g32
sg17
g6
sg18
g32
sg19
I3750
sg20
g6
sg21
g6
sg23
g6
sg24
g6
sg25
g6
sg26
g6
sg27
g6
sg28
g32
sg29
I125034
ssS'IZZO LAWRENCE L'
p407
(dp408
g3
I496
sg4
g32
sg5
g6
sg7
g6
sg8
I5819980
sg9
I28093
sg10
I28
sg11
I5
sg12
I00
sg13
g6
sg14
I3654808
sg15
I312500
sg16
g32
sg17
I85274
sg18
g32
sg19
I1979596
sg20
g6
sg21
S'larry.izzo@enron.com'
p409
sg23
g6
sg24
I437
sg25
I2165172
sg26
I19
sg27
I1553729
sg28
g32
sg29
g6
ssS'TILNEY ELIZABETH A'
p410
(dp411
g3
I460
sg4
F0.5263157894736842
sg5
g6
sg7
I300000
sg8
I1168042
sg9
g6
sg10
I10
sg11
I11
sg12
I00
sg13
I-575000
sg14
I576792
sg15
I275000
sg16
F0.2631578947368421
sg17
I247338
sg18
F0.0
sg19
I399393
sg20
g6
sg21
S'elizabeth.tilney@enron.com'
p412
sg23
g6
sg24
I379
sg25
I591250
sg26
I19
sg27
I152055
sg28
F0.0
sg29
g6
ssS'MARTIN AMANDA K'
p413
(dp414
g3
I1522
sg4
g32
sg5
I85430
sg7
g6
sg8
I2070306
sg9
I8211
sg10
I8
sg11
I0
sg12
I00
sg13
g6
sg14
g6
sg15
I5145434
sg16
g32
sg17
I349487
sg18
g32
sg19
I8407016
sg20
g6
sg21
S'a..martin@enron.com'
p415
sg23
g6
sg24
I477
sg25
I2070306
sg26
I230
sg27
I2818454
sg28
g32
sg29
g6
ssS'BUY RICHARD B'
p416
(dp417
g3
I3523
sg4
g32
sg5
I649584
sg7
I900000
sg8
I3444470
sg9
g6
sg10
I156
sg11
I71
sg12
I00
sg13
I-694862
sg14
I901657
sg15
I769862
sg16
g32
sg17
I330546
sg18
g32
sg19
I2355702
sg20
g6
sg21
S'rick.buy@enron.com'
p418
sg23
g6
sg24
I2333
sg25
I2542813
sg26
I1053
sg27
I400572
sg28
g32
sg29
g6
ssS'GRAMM WENDY L'
p419
(dp420
g3
g6
sg4
g32
sg5
g6
sg7
g6
sg8
g6
sg9
g6
sg10
g6
sg11
g6
sg12
I00
sg13
g6
sg14
g6
sg15
g6
sg16
g32
sg17
g6
sg18
g32
sg19
I119292
sg20
g6
sg21
g6
sg23
g6
sg24
g6
sg25
g6
sg26
g6
sg27
g6
sg28
g32
sg29
I119292
ssS'CAUSEY RICHARD A'
p421
(dp422
g3
I1892
sg4
F0.0
sg5
g6
sg7
I1000000
sg8
I2502063
sg9
I30674
sg10
I58
sg11
I12
sg12
I01
sg13
I-235000
sg14
I2502063
sg15
I350000
sg16
F0.4897959183673469
sg17
I415189
sg18
F0.0
sg19
I1868758
sg20
g6
sg21
S'richard.causey@enron.com'
p423
sg23
g6
sg24
I1585
sg25
g6
sg26
I49
sg27
I307895
sg28
F0.20408163265306123
sg29
g6
ssS'TAYLOR MITCHELL S'
p424
(dp425
g3
I533
sg4
F0.41379310344827586
sg5
I227449
sg7
I600000
sg8
I3745048
sg9
g6
sg10
I0
sg11
I0
sg12
I00
sg13
g6
sg14
I563798
sg15
g6
sg16
F0.3448275862068966
sg17
I265214
sg18
F0.0
sg19
I1092663
sg20
g6
sg21
S'mitchell.taylor@enron.com'
p426
sg23
g6
sg24
I300
sg25
I3181250
sg26
I29
sg27
g6
sg28
F0.0
sg29
g6
ssS'DONAHUE JR JEFFREY M'
p427
(dp428
g3
I865
sg4
F0.0
sg5
g6
sg7
I800000
sg8
I1080988
sg9
I96268
sg10
I188
sg11
I11
sg12
I00
sg13
I-300000
sg14
I315068
sg15
g6
sg16
F0.13636363636363635
sg17
I278601
sg18
F0.0
sg19
I875760
sg20
g6
sg21
S'jeff.donahue@enron.com'
p429
sg23
g6
sg24
I772
sg25
I765920
sg26
I22
sg27
I891
sg28
F0.09090909090909091
sg29
g6
ssS'GLISAN JR BEN F'
p430
(dp431
g3
I873
sg4
F0.0
sg5
g6
sg7
I600000
sg8
I778546
sg9
I125978
sg10
I52
sg11
I6
sg12
I01
sg13
g6
sg14
I393818
sg15
I71023
sg16
F0.375
sg17
I274975
sg18
F0.0
sg19
I1272284
sg20
g6
sg21
S'ben.glisan@enron.com'
p432
sg23
g6
sg24
I874
sg25
I384728
sg26
I16
sg27
I200308
sg28
F0.0
sg29
g6
ss.